target datalayout = "e-m:e-p270:32:32-p271:32:32-p272:64:64-i64:64-i128:128-f80:128-n8:16:32:64-S128"
target triple = "x86_64-pc-linux-gnu"

; Function Attrs: nounwind uwtable
define internal void @unpremultiplyf32(ptr noundef %0, ptr noundef %1, ptr noundef %2, i64 noundef %3, i64 noundef %4, i64 noundef %5, i32 noundef %6, i32 noundef %7, i32 noundef %8, i32 noundef %9, i32 noundef %10) #1 {
  %12 = alloca ptr, align 8
  %13 = alloca ptr, align 8
  %14 = alloca ptr, align 8
  %15 = alloca i64, align 8
  %16 = alloca i64, align 8
  %17 = alloca i64, align 8
  %18 = alloca i32, align 4
  %19 = alloca i32, align 4
  %20 = alloca i32, align 4
  %21 = alloca i32, align 4
  %22 = alloca i32, align 4
  %23 = alloca ptr, align 8
  %24 = alloca ptr, align 8
  %25 = alloca ptr, align 8
  %26 = alloca i32, align 4
  %27 = alloca i32, align 4
  store ptr %0, ptr %12, align 8, !tbaa !91
  store ptr %1, ptr %13, align 8, !tbaa !91
  store ptr %2, ptr %14, align 8, !tbaa !91
  store i64 %3, ptr %15, align 8, !tbaa !50
  store i64 %4, ptr %16, align 8, !tbaa !50
  store i64 %5, ptr %17, align 8, !tbaa !50
  store i32 %6, ptr %18, align 4, !tbaa !37
  store i32 %7, ptr %19, align 4, !tbaa !37
  store i32 %8, ptr %20, align 4, !tbaa !37
  store i32 %9, ptr %21, align 4, !tbaa !37
  store i32 %10, ptr %22, align 4, !tbaa !37
  call void @llvm.lifetime.start.p0(i64 8, ptr %23) #11
  %28 = load ptr, ptr %12, align 8, !tbaa !91
  store ptr %28, ptr %23, align 8, !tbaa !109
  call void @llvm.lifetime.start.p0(i64 8, ptr %24) #11
  %29 = load ptr, ptr %13, align 8, !tbaa !91
  store ptr %29, ptr %24, align 8, !tbaa !109
  call void @llvm.lifetime.start.p0(i64 8, ptr %25) #11
  %30 = load ptr, ptr %14, align 8, !tbaa !91
  store ptr %30, ptr %25, align 8, !tbaa !109
  call void @llvm.lifetime.start.p0(i64 4, ptr %26) #11
  call void @llvm.lifetime.start.p0(i64 4, ptr %27) #11
  store i32 0, ptr %27, align 4, !tbaa !37
  br label %31

31:                                               ; preds = %90, %11
  %32 = load i32, ptr %27, align 4, !tbaa !37
  %33 = load i32, ptr %19, align 4, !tbaa !37
  %34 = icmp slt i32 %32, %33
  br i1 %34, label %35, label %93

35:                                               ; preds = %31
  store i32 0, ptr %26, align 4, !tbaa !37
  br label %36

36:                                               ; preds = %74, %35
  %37 = load i32, ptr %26, align 4, !tbaa !37
  %38 = load i32, ptr %18, align 4, !tbaa !37
  %39 = icmp slt i32 %37, %38
  br i1 %39, label %40, label %77

40:                                               ; preds = %36
  %41 = load ptr, ptr %24, align 8, !tbaa !109
  %42 = load i32, ptr %26, align 4, !tbaa !37
  %43 = sext i32 %42 to i64
  %44 = getelementptr inbounds float, ptr %41, i64 %43
  %45 = load float, ptr %44, align 4, !tbaa !111
  %46 = fcmp nsz ogt float %45, 0.000000e+00
  br i1 %46, label %47, label %63

47:                                               ; preds = %40
  %48 = load ptr, ptr %23, align 8, !tbaa !109
  %49 = load i32, ptr %26, align 4, !tbaa !37
  %50 = sext i32 %49 to i64
  %51 = getelementptr inbounds float, ptr %48, i64 %50
  %52 = load float, ptr %51, align 4, !tbaa !111
  %53 = load ptr, ptr %24, align 8, !tbaa !109
  %54 = load i32, ptr %26, align 4, !tbaa !37
  %55 = sext i32 %54 to i64
  %56 = getelementptr inbounds float, ptr %53, i64 %55
  %57 = load float, ptr %56, align 4, !tbaa !111
  %58 = fdiv nsz float %52, %57
  %59 = load ptr, ptr %25, align 8, !tbaa !109
  %60 = load i32, ptr %26, align 4, !tbaa !37
  %61 = sext i32 %60 to i64
  %62 = getelementptr inbounds float, ptr %59, i64 %61
  store float %58, ptr %62, align 4, !tbaa !111
  br label %73

63:                                               ; preds = %40
  %64 = load ptr, ptr %23, align 8, !tbaa !109
  %65 = load i32, ptr %26, align 4, !tbaa !37
  %66 = sext i32 %65 to i64
  %67 = getelementptr inbounds float, ptr %64, i64 %66
  %68 = load float, ptr %67, align 4, !tbaa !111
  %69 = load ptr, ptr %25, align 8, !tbaa !109
  %70 = load i32, ptr %26, align 4, !tbaa !37
  %71 = sext i32 %70 to i64
  %72 = getelementptr inbounds float, ptr %69, i64 %71
  store float %68, ptr %72, align 4, !tbaa !111
  br label %73

73:                                               ; preds = %63, %47
  br label %74

74:                                               ; preds = %73
  %75 = load i32, ptr %26, align 4, !tbaa !37
  %76 = add nsw i32 %75, 1
  store i32 %76, ptr %26, align 4, !tbaa !37
  br label %36, !llvm.loop !115

77:                                               ; preds = %36
  %78 = load i64, ptr %17, align 8, !tbaa !50
  %79 = sdiv i64 %78, 4
  %80 = load ptr, ptr %25, align 8, !tbaa !109
  %81 = getelementptr inbounds float, ptr %80, i64 %79
  store ptr %81, ptr %25, align 8, !tbaa !109
  %82 = load i64, ptr %15, align 8, !tbaa !50
  %83 = sdiv i64 %82, 4
  %84 = load ptr, ptr %23, align 8, !tbaa !109
  %85 = getelementptr inbounds float, ptr %84, i64 %83
  store ptr %85, ptr %23, align 8, !tbaa !109
  %86 = load i64, ptr %16, align 8, !tbaa !50
  %87 = sdiv i64 %86, 4
  %88 = load ptr, ptr %24, align 8, !tbaa !109
  %89 = getelementptr inbounds float, ptr %88, i64 %87
  store ptr %89, ptr %24, align 8, !tbaa !109
  br label %90

90:                                               ; preds = %77
  %91 = load i32, ptr %27, align 4, !tbaa !37
  %92 = add nsw i32 %91, 1
  store i32 %92, ptr %27, align 4, !tbaa !37
  br label %31, !llvm.loop !116

93:                                               ; preds = %31
  call void @llvm.lifetime.end.p0(i64 4, ptr %27) #11
  call void @llvm.lifetime.end.p0(i64 4, ptr %26) #11
  call void @llvm.lifetime.end.p0(i64 8, ptr %25) #11
  call void @llvm.lifetime.end.p0(i64 8, ptr %24) #11
  call void @llvm.lifetime.end.p0(i64 8, ptr %23) #11
  ret void
}