; Function Attrs: nofree norecurse nosync nounwind memory(argmem: readwrite) uwtable
define internal void @unpremultiplyf32(ptr noundef readonly captures(none) %0, ptr noundef readonly captures(none) %1, ptr noundef writeonly captures(none) %2, i64 noundef %3, i64 noundef %4, i64 noundef %5, i32 noundef %6, i32 noundef %7, i32 %8, i32 %9, i32 %10) #5 {
  %12 = icmp sgt i32 %7, 0
  br i1 %12, label %.preheader.lr.ph, label %._crit_edge36

.preheader.lr.ph:                                 ; preds = %11
  %13 = icmp sgt i32 %6, 0
  %14 = sdiv i64 %5, 4
  %15 = sdiv i64 %3, 4
  %16 = sdiv i64 %4, 4
  br i1 %13, label %.preheader.us.preheader, label %._crit_edge36

.preheader.us.preheader:                          ; preds = %.preheader.lr.ph
  %wide.trip.count = zext nneg i32 %6 to i64
  br label %.preheader.us

.preheader.us:                                    ; preds = %.preheader.us.preheader, %._crit_edge.us
  %.035.us = phi i32 [ %28, %._crit_edge.us ], [ 0, %.preheader.us.preheader ]
  %.02734.us = phi ptr [ %25, %._crit_edge.us ], [ %2, %.preheader.us.preheader ]
  %.02833.us = phi ptr [ %27, %._crit_edge.us ], [ %1, %.preheader.us.preheader ]
  %.02932.us = phi ptr [ %26, %._crit_edge.us ], [ %0, %.preheader.us.preheader ]
  br label %17

17:                                               ; preds = %.preheader.us, %17
  %indvars.iv = phi i64 [ 0, %.preheader.us ], [ %indvars.iv.next, %17 ]
  %18 = getelementptr inbounds nuw float, ptr %.02833.us, i64 %indvars.iv
  %19 = load float, ptr %18, align 4, !tbaa !93
  %20 = fcmp nsz ogt float %19, 0.000000e+00
  %21 = getelementptr inbounds nuw float, ptr %.02932.us, i64 %indvars.iv
  %22 = load float, ptr %21, align 4, !tbaa !93
  %23 = fdiv nsz float %22, %19
  %.sink = select i1 %20, float %23, float %22
  %24 = getelementptr inbounds nuw float, ptr %.02734.us, i64 %indvars.iv
  store float %.sink, ptr %24, align 4, !tbaa !93
  %indvars.iv.next = add nuw nsw i64 %indvars.iv, 1
  %exitcond.not = icmp eq i64 %indvars.iv.next, %wide.trip.count
  br i1 %exitcond.not, label %._crit_edge.us, label %17, !llvm.loop !97

._crit_edge.us:                                   ; preds = %17
  %25 = getelementptr inbounds float, ptr %.02734.us, i64 %14
  %26 = getelementptr inbounds float, ptr %.02932.us, i64 %15
  %27 = getelementptr inbounds float, ptr %.02833.us, i64 %16
  %28 = add nuw nsw i32 %.035.us, 1
  %exitcond39.not = icmp eq i32 %28, %7
  br i1 %exitcond39.not, label %._crit_edge36, label %.preheader.us, !llvm.loop !98

._crit_edge36:                                    ; preds = %._crit_edge.us, %.preheader.lr.ph, %11
  ret void
}